target datalayout = "e-m:e-p270:32:32-p271:32:32-p272:64:64-i64:64-i128:128-f80:128-n8:16:32:64-S128"
target triple = "x86_64-pc-linux-gnu"

%struct.SN_env = type { ptr, i32, i32, i32, i32, i32, ptr, ptr }

@s_84 = internal constant [6 x i8] c"\CE\B1\CF\81\CF\87", align 1
@s_85 = internal constant [6 x i8] c"\CE\BF\CE\BD\CF\84", align 1
@s_86 = internal constant [6 x i8] c"\CE\BA\CF\81\CE\B5", align 1
@s_87 = internal constant [6 x i8] c"\CF\89\CE\BD\CF\84", align 1

; Function Attrs: nounwind uwtable
define internal i32 @r_step5d(ptr noundef %0) #0 {
  %2 = alloca i32, align 4
  %3 = alloca ptr, align 8
  %4 = alloca i32, align 4
  %5 = alloca i32, align 4
  %6 = alloca i32, align 4
  %7 = alloca i32, align 4
  %8 = alloca i32, align 4
  store ptr %0, ptr %3, align 8
  %9 = load ptr, ptr %3, align 8
  %10 = getelementptr inbounds nuw %struct.SN_env, ptr %9, i32 0, i32 1
  %11 = load i32, ptr %10, align 8
  %12 = load ptr, ptr %3, align 8
  %13 = getelementptr inbounds nuw %struct.SN_env, ptr %12, i32 0, i32 5
  store i32 %11, ptr %13, align 8
  %14 = load ptr, ptr %3, align 8
  %15 = getelementptr inbounds nuw %struct.SN_env, ptr %14, i32 0, i32 1
  %16 = load i32, ptr %15, align 8
  %17 = sub i32 %16, 9
  %18 = load ptr, ptr %3, align 8
  %19 = getelementptr inbounds nuw %struct.SN_env, ptr %18, i32 0, i32 3
  %20 = load i32, ptr %19, align 8
  %21 = icmp sle i32 %17, %20
  br i1 %21, label %35, label %22

22:                                               ; preds = %1
  %23 = load ptr, ptr %3, align 8
  %24 = getelementptr inbounds nuw %struct.SN_env, ptr %23, i32 0, i32 0
  %25 = load ptr, ptr %24, align 8
  %26 = load ptr, ptr %3, align 8
  %27 = getelementptr inbounds nuw %struct.SN_env, ptr %26, i32 0, i32 1
  %28 = load i32, ptr %27, align 8
  %29 = sub i32 %28, 1
  %30 = sext i32 %29 to i64
  %31 = getelementptr inbounds i8, ptr %25, i64 %30
  %32 = load i8, ptr %31, align 1
  %33 = zext i8 %32 to i32
  %34 = icmp ne i32 %33, 131
  br i1 %34, label %35, label %36

35:                                               ; preds = %22, %1
  store i32 0, ptr %2, align 4
  br label %139

36:                                               ; preds = %22
  %37 = load ptr, ptr %3, align 8
  %38 = call i32 @find_among_b(ptr noundef %37, ptr noundef @a_43, i32 noundef 2)
  %39 = icmp ne i32 %38, 0
  br i1 %39, label %41, label %40

40:                                               ; preds = %36
  store i32 0, ptr %2, align 4
  br label %139

41:                                               ; preds = %36
  %42 = load ptr, ptr %3, align 8
  %43 = getelementptr inbounds nuw %struct.SN_env, ptr %42, i32 0, i32 1
  %44 = load i32, ptr %43, align 8
  %45 = load ptr, ptr %3, align 8
  %46 = getelementptr inbounds nuw %struct.SN_env, ptr %45, i32 0, i32 4
  store i32 %44, ptr %46, align 4
  call void @llvm.lifetime.start.p0(i64 4, ptr %4) #3
  %47 = load ptr, ptr %3, align 8
  %48 = call i32 @slice_del(ptr noundef %47)
  store i32 %48, ptr %4, align 4
  %49 = load i32, ptr %4, align 4
  %50 = icmp slt i32 %49, 0
  br i1 %50, label %51, label %53

51:                                               ; preds = %41
  %52 = load i32, ptr %4, align 4
  store i32 %52, ptr %2, align 4
  store i32 1, ptr %5, align 4
  br label %54

53:                                               ; preds = %41
  store i32 0, ptr %5, align 4
  br label %54

54:                                               ; preds = %53, %51
  call void @llvm.lifetime.end.p0(i64 4, ptr %4) #3
  %55 = load i32, ptr %5, align 4
  switch i32 %55, label %141 [
    i32 0, label %56
    i32 1, label %139
  ]

56:                                               ; preds = %54
  %57 = load ptr, ptr %3, align 8
  %58 = getelementptr inbounds nuw %struct.SN_env, ptr %57, i32 0, i32 7
  %59 = load ptr, ptr %58, align 8
  %60 = getelementptr inbounds i32, ptr %59, i64 0
  store i32 0, ptr %60, align 4
  call void @llvm.lifetime.start.p0(i64 4, ptr %6) #3
  %61 = load ptr, ptr %3, align 8
  %62 = getelementptr inbounds nuw %struct.SN_env, ptr %61, i32 0, i32 2
  %63 = load i32, ptr %62, align 4
  %64 = load ptr, ptr %3, align 8
  %65 = getelementptr inbounds nuw %struct.SN_env, ptr %64, i32 0, i32 1
  %66 = load i32, ptr %65, align 8
  %67 = sub i32 %63, %66
  store i32 %67, ptr %6, align 4
  %68 = load ptr, ptr %3, align 8
  %69 = getelementptr inbounds nuw %struct.SN_env, ptr %68, i32 0, i32 1
  %70 = load i32, ptr %69, align 8
  %71 = load ptr, ptr %3, align 8
  %72 = getelementptr inbounds nuw %struct.SN_env, ptr %71, i32 0, i32 5
  store i32 %70, ptr %72, align 8
  %73 = load ptr, ptr %3, align 8
  %74 = getelementptr inbounds nuw %struct.SN_env, ptr %73, i32 0, i32 1
  %75 = load i32, ptr %74, align 8
  %76 = load ptr, ptr %3, align 8
  %77 = getelementptr inbounds nuw %struct.SN_env, ptr %76, i32 0, i32 4
  store i32 %75, ptr %77, align 4
  %78 = load ptr, ptr %3, align 8
  %79 = call i32 @eq_s_b(ptr noundef %78, i32 noundef 6, ptr noundef @s_84)
  %80 = icmp ne i32 %79, 0
  br i1 %80, label %82, label %81

81:                                               ; preds = %56
  br label %102

82:                                               ; preds = %56
  %83 = load ptr, ptr %3, align 8
  %84 = getelementptr inbounds nuw %struct.SN_env, ptr %83, i32 0, i32 1
  %85 = load i32, ptr %84, align 8
  %86 = load ptr, ptr %3, align 8
  %87 = getelementptr inbounds nuw %struct.SN_env, ptr %86, i32 0, i32 3
  %88 = load i32, ptr %87, align 8
  %89 = icmp sgt i32 %85, %88
  br i1 %89, label %90, label %91

90:                                               ; preds = %82
  br label %102

91:                                               ; preds = %82
  call void @llvm.lifetime.start.p0(i64 4, ptr %7) #3
  %92 = load ptr, ptr %3, align 8
  %93 = call i32 @slice_from_s(ptr noundef %92, i32 noundef 6, ptr noundef @s_85)
  store i32 %93, ptr %7, align 4
  %94 = load i32, ptr %7, align 4
  %95 = icmp slt i32 %94, 0
  br i1 %95, label %96, label %98

96:                                               ; preds = %91
  %97 = load i32, ptr %7, align 4
  store i32 %97, ptr %2, align 4
  store i32 1, ptr %5, align 4
  br label %99

98:                                               ; preds = %91
  store i32 0, ptr %5, align 4
  br label %99

99:                                               ; preds = %98, %96
  call void @llvm.lifetime.end.p0(i64 4, ptr %7) #3
  %100 = load i32, ptr %5, align 4
  switch i32 %100, label %135 [
    i32 0, label %101
  ]

101:                                              ; preds = %99
  store i32 3, ptr %5, align 4
  br label %135

102:                                              ; preds = %90, %81
  %103 = load ptr, ptr %3, align 8
  %104 = getelementptr inbounds nuw %struct.SN_env, ptr %103, i32 0, i32 2
  %105 = load i32, ptr %104, align 4
  %106 = load i32, ptr %6, align 4
  %107 = sub i32 %105, %106
  %108 = load ptr, ptr %3, align 8
  %109 = getelementptr inbounds nuw %struct.SN_env, ptr %108, i32 0, i32 1
  store i32 %107, ptr %109, align 8
  %110 = load ptr, ptr %3, align 8
  %111 = getelementptr inbounds nuw %struct.SN_env, ptr %110, i32 0, i32 1
  %112 = load i32, ptr %111, align 8
  %113 = load ptr, ptr %3, align 8
  %114 = getelementptr inbounds nuw %struct.SN_env, ptr %113, i32 0, i32 5
  store i32 %112, ptr %114, align 8
  %115 = load ptr, ptr %3, align 8
  %116 = getelementptr inbounds nuw %struct.SN_env, ptr %115, i32 0, i32 1
  %117 = load i32, ptr %116, align 8
  %118 = load ptr, ptr %3, align 8
  %119 = getelementptr inbounds nuw %struct.SN_env, ptr %118, i32 0, i32 4
  store i32 %117, ptr %119, align 4
  %120 = load ptr, ptr %3, align 8
  %121 = call i32 @eq_s_b(ptr noundef %120, i32 noundef 6, ptr noundef @s_86)
  %122 = icmp ne i32 %121, 0
  br i1 %122, label %124, label %123

123:                                              ; preds = %102
  store i32 0, ptr %2, align 4
  store i32 1, ptr %5, align 4
  br label %135

124:                                              ; preds = %102
  call void @llvm.lifetime.start.p0(i64 4, ptr %8) #3
  %125 = load ptr, ptr %3, align 8
  %126 = call i32 @slice_from_s(ptr noundef %125, i32 noundef 6, ptr noundef @s_87)
  store i32 %126, ptr %8, align 4
  %127 = load i32, ptr %8, align 4
  %128 = icmp slt i32 %127, 0
  br i1 %128, label %129, label %131

129:                                              ; preds = %124
  %130 = load i32, ptr %8, align 4
  store i32 %130, ptr %2, align 4
  store i32 1, ptr %5, align 4
  br label %132

131:                                              ; preds = %124
  store i32 0, ptr %5, align 4
  br label %132

132:                                              ; preds = %131, %129
  call void @llvm.lifetime.end.p0(i64 4, ptr %8) #3
  %133 = load i32, ptr %5, align 4
  switch i32 %133, label %135 [
    i32 0, label %134
  ]

134:                                              ; preds = %132
  store i32 0, ptr %5, align 4
  br label %135

135:                                              ; preds = %101, %134, %132, %123, %99
  call void @llvm.lifetime.end.p0(i64 4, ptr %6) #3
  %136 = load i32, ptr %5, align 4
  switch i32 %136, label %141 [
    i32 0, label %137
    i32 1, label %139
    i32 3, label %138
  ]

137:                                              ; preds = %135
  br label %138

138:                                              ; preds = %137, %135
  store i32 1, ptr %2, align 4
  br label %139

139:                                              ; preds = %138, %135, %54, %40, %35
  %140 = load i32, ptr %2, align 4
  ret i32 %140

141:                                              ; preds = %135, %54
  unreachable
}