; Function Attrs: nounwind uwtable
define internal fastcc i32 @r_step5d(ptr noundef initializes((24, 28)) %0) unnamed_addr #0 {
  %2 = getelementptr inbounds nuw i8, ptr %0, i64 8
  %3 = load i32, ptr %2, align 8
  %4 = getelementptr inbounds nuw i8, ptr %0, i64 24
  store i32 %3, ptr %4, align 8
  %5 = add i32 %3, -9
  %6 = getelementptr inbounds nuw i8, ptr %0, i64 16
  %7 = load i32, ptr %6, align 8
  %.not = icmp sgt i32 %5, %7
  br i1 %.not, label %8, label %.thread61

8:                                                ; preds = %1
  %9 = load ptr, ptr %0, align 8
  %10 = add i32 %3, -1
  %11 = sext i32 %10 to i64
  %12 = getelementptr inbounds i8, ptr %9, i64 %11
  %13 = load i8, ptr %12, align 1
  %.not48 = icmp eq i8 %13, -125
  br i1 %.not48, label %14, label %.thread61

14:                                               ; preds = %8
  %15 = tail call i32 @find_among_b(ptr noundef nonnull %0, ptr noundef nonnull @a_43, i32 noundef 2) #2
  %.not49 = icmp eq i32 %15, 0
  br i1 %.not49, label %.thread61, label %16

16:                                               ; preds = %14
  %17 = load i32, ptr %2, align 8
  %18 = getelementptr inbounds nuw i8, ptr %0, i64 20
  store i32 %17, ptr %18, align 4
  %19 = tail call i32 @slice_del(ptr noundef nonnull %0) #2
  %20 = icmp sgt i32 %19, -1
  br i1 %20, label %21, label %.thread61

21:                                               ; preds = %16
  %22 = getelementptr inbounds nuw i8, ptr %0, i64 40
  %23 = load ptr, ptr %22, align 8
  store i32 0, ptr %23, align 4
  %24 = getelementptr inbounds nuw i8, ptr %0, i64 12
  %25 = load i32, ptr %24, align 4
  %26 = load i32, ptr %2, align 8
  %.neg = sub i32 %26, %25
  store i32 %26, ptr %4, align 8
  store i32 %26, ptr %18, align 4
  %27 = tail call i32 @eq_s_b(ptr noundef nonnull %0, i32 noundef 6, ptr noundef nonnull @s_84) #2
  %.not50 = icmp eq i32 %27, 0
  br i1 %.not50, label %35, label %28

28:                                               ; preds = %21
  %29 = load i32, ptr %2, align 8
  %30 = load i32, ptr %6, align 8
  %31 = icmp sgt i32 %29, %30
  br i1 %31, label %35, label %32

32:                                               ; preds = %28
  %33 = tail call i32 @slice_from_s(ptr noundef nonnull %0, i32 noundef 6, ptr noundef nonnull @s_85) #2
  %34 = icmp sgt i32 %33, -1
  %spec.select = select i1 %34, i32 1, i32 %33
  br label %.thread61

35:                                               ; preds = %28, %21
  %36 = load i32, ptr %24, align 4
  %37 = add i32 %36, %.neg
  store i32 %37, ptr %2, align 8
  store i32 %37, ptr %4, align 8
  store i32 %37, ptr %18, align 4
  %38 = tail call i32 @eq_s_b(ptr noundef nonnull %0, i32 noundef 6, ptr noundef nonnull @s_86) #2
  %.not51 = icmp eq i32 %38, 0
  br i1 %.not51, label %.thread61, label %39

39:                                               ; preds = %35
  %40 = tail call i32 @slice_from_s(ptr noundef nonnull %0, i32 noundef 6, ptr noundef nonnull @s_87) #2
  %.fr = freeze i32 %40
  %switch = icmp slt i32 %.fr, 0
  %spec.select66 = select i1 %switch, i32 %.fr, i32 1
  br label %.thread61

.thread61:                                        ; preds = %39, %32, %35, %16, %14, %1, %8
  %.0 = phi i32 [ %19, %16 ], [ 0, %8 ], [ 0, %1 ], [ 0, %14 ], [ 0, %35 ], [ %spec.select, %32 ], [ %spec.select66, %39 ]
  ret i32 %.0
}